[000h 0000   4]                    Signature : "DBG2"    [Debug Port Table type 2]
[004h 0004   4]                 Table Length : 0000041A
[008h 0008   1]                     Revision : 01
[009h 0009   1]                     Checksum : 00     /* Incorrect checksum, should be E3 */
[00Ah 0010   6]                       Oem ID : "QCOM  "
[010h 0016   8]                 Oem Table ID : "QCOMEDK2"
[018h 0024   4]                 Oem Revision : 00008280
[01Ch 0028   4]              Asl Compiler ID : "QCOM"
[020h 0032   4]        Asl Compiler Revision : 00000001

[024h 0036   4]                  Info Offset : 0000002C
[028h 0040   4]                   Info Count : 00000005

[02Ch 0044   1]                     Revision : 01
[02Dh 0045   2]                       Length : 0046
[02Fh 0047   1]               Register Count : 01
[030h 0048   2]              Namepath Length : 000A
[032h 0050   2]              Namepath Offset : 0026
[034h 0052   2]              OEM Data Length : 0000 [Optional field not present]
[036h 0054   2]              OEM Data Offset : 0000 [Optional field not present]
[038h 0056   2]                    Port Type : 8000
[03Ah 0058   2]                 Port Subtype : 0013
[03Ch 0060   2]                     Reserved : 0000
[03Eh 0062   2]          Base Address Offset : 0016
[040h 0064   2]          Address Size Offset : 0022

[042h 0066  12]        Base Address Register : [Generic Address Structure]
[042h 0066   1]                     Space ID : 00 [SystemMemory]
[043h 0067   1]                    Bit Width : 20
[044h 0068   1]                   Bit Offset : 00
[045h 0069   1]         Encoded Access Width : 20 [Unknown Width Encoding]
[046h 0070   8]                      Address : 0000000000884000

[04Eh 0078   4]                 Address Size : 00001000

[052h 0082  10]                     Namepath : "\_SB.UARD"

[072h 0114   1]                     Revision : 01
[073h 0115   2]                       Length : 00EA
[075h 0117   1]               Register Count : 02
[076h 0118   2]              Namepath Length : 000A
[078h 0120   2]              Namepath Offset : 0036
[07Ah 0122   2]              OEM Data Length : 0094
[07Ch 0124   2]              OEM Data Offset : 0056
[07Eh 0126   2]                    Port Type : 8003
[080h 0128   2]                 Port Subtype : 5143
[082h 0130   2]                     Reserved : 0000
[084h 0132   2]          Base Address Offset : 0016
[086h 0134   2]          Address Size Offset : 002E

[088h 0136  12]        Base Address Register : [Generic Address Structure]
[088h 0136   1]                     Space ID : 00 [SystemMemory]
[089h 0137   1]                    Bit Width : 20
[08Ah 0138   1]                   Bit Offset : 00
[08Bh 0139   1]         Encoded Access Width : 20 [Unknown Width Encoding]
[08Ch 0140   8]                      Address : 000000000A600000


[094h 0148  12]        Base Address Register : [Generic Address Structure]
[094h 0148   1]                     Space ID : 00 [SystemMemory]
[095h 0149   1]                    Bit Width : 20
[096h 0150   1]                   Bit Offset : 00
[097h 0151   1]         Encoded Access Width : 20 [Unknown Width Encoding]
[098h 0152   8]                      Address : 000000000A600000

[0A0h 0160   4]                 Address Size : 000FFFFF
[0A4h 0164   4]                 Address Size : 00001000

[0A8h 0168  10]                     Namepath : "\_SB.URS0"
[0C8h 0200 148]                     OEM Data : 44 42 47 32 1A 04 00 00 01 00 51 43 4F 4D 20 20 /* DBG2......QCOM   */\
/* 0D8h 0216  16 */                            51 43 4F 4D 45 44 4B 32 80 82 00 00 51 43 4F 4D /* QCOMEDK2....QCOM */\
/* 0E8h 0232  16 */                            01 00 00 00 2C 00 00 00 05 00 00 00 01 46 00 01 /* ....,........F.. */\
/* 0F8h 0248  16 */                            0A 00 26 00 00 00 00 00 00 80 13 00 00 00 16 00 /* ..&............. */\
/* 108h 0264  16 */                            22 00 00 20 00 20 00 40 88 00 00 00 00 00 00 10 /* ".. . .@........ */\
/* 118h 0280  16 */                            00 00 5C 5F 53 42 2E 55 41 52 44 00 00 00 00 00 /* ..\_SB.UARD..... */\
/* 128h 0296  16 */                            00 00 00 00 00 00 00 00 00 00 00 00 00 00 00 00 /* ................ */\
/* 138h 0312  16 */                            00 00 01 EA 00 02 0A 00 36 00 94 00 56 00 03 80 /* ........6...V... */\
/* 148h 0328  16 */                            43 51 00 00 16 00 2E 00 00 20 00 20 00 00 60 0A /* CQ....... . ..`. */\
/* 158h 0344   4 */                            00 00 00 00                                     /* .... */\

[15Ch 0348   1]                     Revision : 01
[15Dh 0349   2]                       Length : 00EA
[15Fh 0351   1]               Register Count : 02
[160h 0352   2]              Namepath Length : 000A
[162h 0354   2]              Namepath Offset : 0036
[164h 0356   2]              OEM Data Length : 0094
[166h 0358   2]              OEM Data Offset : 0056
[168h 0360   2]                    Port Type : 8003
[16Ah 0362   2]                 Port Subtype : 5143
[16Ch 0364   2]                     Reserved : 0000
[16Eh 0366   2]          Base Address Offset : 0016
[170h 0368   2]          Address Size Offset : 002E

[172h 0370  12]        Base Address Register : [Generic Address Structure]
[172h 0370   1]                     Space ID : 00 [SystemMemory]
[173h 0371   1]                    Bit Width : 20
[174h 0372   1]                   Bit Offset : 00
[175h 0373   1]         Encoded Access Width : 20 [Unknown Width Encoding]
[176h 0374   8]                      Address : 000000000A800000


[17Eh 0382  12]        Base Address Register : [Generic Address Structure]
[17Eh 0382   1]                     Space ID : 00 [SystemMemory]
[17Fh 0383   1]                    Bit Width : 20
[180h 0384   1]                   Bit Offset : 00
[181h 0385   1]         Encoded Access Width : 20 [Unknown Width Encoding]
[182h 0386   8]                      Address : 000000000A800000

[18Ah 0394   4]                 Address Size : 000FFFFF
[18Eh 0398   4]                 Address Size : 00001000

[192h 0402  10]                     Namepath : "\_SB.URS1"
[1B2h 0434 148]                     OEM Data : 44 42 47 32 1A 04 00 00 01 00 51 43 4F 4D 20 20 /* DBG2......QCOM   */\
/* 1C2h 0450  16 */                            51 43 4F 4D 45 44 4B 32 80 82 00 00 51 43 4F 4D /* QCOMEDK2....QCOM */\
/* 1D2h 0466  16 */                            01 00 00 00 2C 00 00 00 05 00 00 00 01 46 00 01 /* ....,........F.. */\
/* 1E2h 0482  16 */                            0A 00 26 00 00 00 00 00 00 80 13 00 00 00 16 00 /* ..&............. */\
/* 1F2h 0498  16 */                            22 00 00 20 00 20 00 40 88 00 00 00 00 00 00 10 /* ".. . .@........ */\
/* 202h 0514  16 */                            00 00 5C 5F 53 42 2E 55 41 52 44 00 00 00 00 00 /* ..\_SB.UARD..... */\
/* 212h 0530  16 */                            00 00 00 00 00 00 00 00 00 00 00 00 00 00 00 00 /* ................ */\
/* 222h 0546  16 */                            00 00 01 EA 00 02 0A 00 36 00 94 00 56 00 03 80 /* ........6...V... */\
/* 232h 0562  16 */                            43 51 00 00 16 00 2E 00 00 20 00 20 00 00 60 0A /* CQ....... . ..`. */\
/* 242h 0578   4 */                            00 00 00 00                                     /* .... */\

[246h 0582   1]                     Revision : 01
[247h 0583   2]                       Length : 00EA
[249h 0585   1]               Register Count : 02
[24Ah 0586   2]              Namepath Length : 000A
[24Ch 0588   2]              Namepath Offset : 0036
[24Eh 0590   2]              OEM Data Length : 0094
[250h 0592   2]              OEM Data Offset : 0056
[252h 0594   2]                    Port Type : 8003
[254h 0596   2]                 Port Subtype : 5143
[256h 0598   2]                     Reserved : 0000
[258h 0600   2]          Base Address Offset : 0016
[25Ah 0602   2]          Address Size Offset : 002E

[25Ch 0604  12]        Base Address Register : [Generic Address Structure]
[25Ch 0604   1]                     Space ID : 00 [SystemMemory]
[25Dh 0605   1]                    Bit Width : 20
[25Eh 0606   1]                   Bit Offset : 00
[25Fh 0607   1]         Encoded Access Width : 20 [Unknown Width Encoding]
[260h 0608   8]                      Address : 000000000A600000


[268h 0616  12]        Base Address Register : [Generic Address Structure]
[268h 0616   1]                     Space ID : 00 [SystemMemory]
[269h 0617   1]                    Bit Width : 20
[26Ah 0618   1]                   Bit Offset : 00
[26Bh 0619   1]         Encoded Access Width : 20 [Unknown Width Encoding]
[26Ch 0620   8]                      Address : 000000000A600000

[274h 0628   4]                 Address Size : 000FFFFF
[278h 0632   4]                 Address Size : 00001000

[27Ch 0636  10]                     Namepath : "\_SB.URS0"
[29Ch 0668 148]                     OEM Data : 44 42 47 32 1A 04 00 00 01 00 51 43 4F 4D 20 20 /* DBG2......QCOM   */\
/* 2ACh 0684  16 */                            51 43 4F 4D 45 44 4B 32 80 82 00 00 51 43 4F 4D /* QCOMEDK2....QCOM */\
/* 2BCh 0700  16 */                            01 00 00 00 2C 00 00 00 05 00 00 00 01 46 00 01 /* ....,........F.. */\
/* 2CCh 0716  16 */                            0A 00 26 00 00 00 00 00 00 80 13 00 00 00 16 00 /* ..&............. */\
/* 2DCh 0732  16 */                            22 00 00 20 00 20 00 40 88 00 00 00 00 00 00 10 /* ".. . .@........ */\
/* 2ECh 0748  16 */                            00 00 5C 5F 53 42 2E 55 41 52 44 00 00 00 00 00 /* ..\_SB.UARD..... */\
/* 2FCh 0764  16 */                            00 00 00 00 00 00 00 00 00 00 00 00 00 00 00 00 /* ................ */\
/* 30Ch 0780  16 */                            00 00 01 EA 00 02 0A 00 36 00 94 00 56 00 03 80 /* ........6...V... */\
/* 31Ch 0796  16 */                            43 51 00 00 16 00 2E 00 00 20 00 20 00 00 60 0A /* CQ....... . ..`. */\
/* 32Ch 0812   4 */                            00 00 00 00                                     /* .... */\

[330h 0816   1]                     Revision : 01
[331h 0817   2]                       Length : 00EA
[333h 0819   1]               Register Count : 02
[334h 0820   2]              Namepath Length : 000A
[336h 0822   2]              Namepath Offset : 0036
[338h 0824   2]              OEM Data Length : 0094
[33Ah 0826   2]              OEM Data Offset : 0056
[33Ch 0828   2]                    Port Type : 8003
[33Eh 0830   2]                 Port Subtype : 5143
[340h 0832   2]                     Reserved : 0000
[342h 0834   2]          Base Address Offset : 0016
[344h 0836   2]          Address Size Offset : 002E

[346h 0838  12]        Base Address Register : [Generic Address Structure]
[346h 0838   1]                     Space ID : 00 [SystemMemory]
[347h 0839   1]                    Bit Width : 20
[348h 0840   1]                   Bit Offset : 00
[349h 0841   1]         Encoded Access Width : 20 [Unknown Width Encoding]
[34Ah 0842   8]                      Address : 000000000A800000


[352h 0850  12]        Base Address Register : [Generic Address Structure]
[352h 0850   1]                     Space ID : 00 [SystemMemory]
[353h 0851   1]                    Bit Width : 20
[354h 0852   1]                   Bit Offset : 00
[355h 0853   1]         Encoded Access Width : 20 [Unknown Width Encoding]
[356h 0854   8]                      Address : 000000000A800000

[35Eh 0862   4]                 Address Size : 000FFFFF
[362h 0866   4]                 Address Size : 00001000

[366h 0870  10]                     Namepath : "\_SB.URS1"
[386h 0902 148]                     OEM Data : 44 42 47 32 1A 04 00 00 01 00 51 43 4F 4D 20 20 /* DBG2......QCOM   */\
/* 396h 0918  16 */                            51 43 4F 4D 45 44 4B 32 80 82 00 00 51 43 4F 4D /* QCOMEDK2....QCOM */\
/* 3A6h 0934  16 */                            01 00 00 00 2C 00 00 00 05 00 00 00 01 46 00 01 /* ....,........F.. */\
/* 3B6h 0950  16 */                            0A 00 26 00 00 00 00 00 00 80 13 00 00 00 16 00 /* ..&............. */\
/* 3C6h 0966  16 */                            22 00 00 20 00 20 00 40 88 00 00 00 00 00 00 10 /* ".. . .@........ */\
/* 3D6h 0982  16 */                            00 00 5C 5F 53 42 2E 55 41 52 44 00 00 00 00 00 /* ..\_SB.UARD..... */\
/* 3E6h 0998  16 */                            00 00 00 00 00 00 00 00 00 00 00 00 00 00 00 00 /* ................ */\
/* 3F6h 1014  16 */                            00 00 01 EA 00 02 0A 00 36 00 94 00 56 00 03 80 /* ........6...V... */\
/* 406h 1030  16 */                            43 51 00 00 16 00 2E 00 00 20 00 20 00 00 60 0A /* CQ....... . ..`. */\
/* 416h 1046   4 */                            00 00 00 00                                     /* .... */\

Raw Table Data: Length 1050 (0x41A)

    0000: 44 42 47 32 1A 04 00 00 01 00 51 43 4F 4D 20 20  // DBG2......QCOM  
    0010: 51 43 4F 4D 45 44 4B 32 80 82 00 00 51 43 4F 4D  // QCOMEDK2....QCOM
    0020: 01 00 00 00 2C 00 00 00 05 00 00 00 01 46 00 01  // ....,........F..
    0030: 0A 00 26 00 00 00 00 00 00 80 13 00 00 00 16 00  // ..&.............
    0040: 22 00 00 20 00 20 00 40 88 00 00 00 00 00 00 10  // ".. . .@........
    0050: 00 00 5C 5F 53 42 2E 55 41 52 44 00 00 00 00 00  // ..\_SB.UARD.....
    0060: 00 00 00 00 00 00 00 00 00 00 00 00 00 00 00 00  // ................
    0070: 00 00 01 EA 00 02 0A 00 36 00 94 00 56 00 03 80  // ........6...V...
    0080: 43 51 00 00 16 00 2E 00 00 20 00 20 00 00 60 0A  // CQ....... . ..`.
    0090: 00 00 00 00 00 20 00 20 00 00 60 0A 00 00 00 00  // ..... . ..`.....
    00A0: FF FF 0F 00 00 10 00 00 5C 5F 53 42 2E 55 52 53  // ........\_SB.URS
    00B0: 30 00 00 00 00 00 00 00 00 00 00 00 00 00 00 00  // 0...............
    00C0: 00 00 00 00 00 00 00 00 05 00 00 00 32 58 49 46  // ............2XIF
    00D0: 03 00 00 00 00 02 00 00 00 C7 00 00 F8 FF FF FF  // ................
    00E0: 00 00 00 00 00 02 00 00 10 88 0F 00 00 00 00 00  // ................
    00F0: 00 00 10 10 00 02 00 00 B4 88 0F 00 00 00 00 00  // ................
    0100: EB 0D 00 00 00 00 00 00 00 00 00 00 00 00 00 00  // ................
    0110: 00 00 00 00 00 00 00 00 00 00 00 00 00 00 00 00  // ................
    0120: 00 00 00 00 00 00 00 00 00 00 00 00 00 00 00 00  // ................
    0130: 00 00 00 00 00 00 00 00 00 00 00 00 00 00 00 00  // ................
    0140: 00 00 00 00 00 00 00 00 00 00 00 00 00 00 00 00  // ................
    0150: 00 00 00 00 00 00 00 00 43 42 53 55 01 EA 00 02  // ........CBSU....
    0160: 0A 00 36 00 94 00 56 00 03 80 43 51 00 00 16 00  // ..6...V...CQ....
    0170: 2E 00 00 20 00 20 00 00 80 0A 00 00 00 00 00 20  // ... . ......... 
    0180: 00 20 00 00 80 0A 00 00 00 00 FF FF 0F 00 00 10  // . ..............
    0190: 00 00 5C 5F 53 42 2E 55 52 53 31 00 00 00 00 00  // ..\_SB.URS1.....
    01A0: 00 00 00 00 00 00 00 00 00 00 00 00 00 00 00 00  // ................
    01B0: 00 00 05 00 00 00 32 58 49 46 03 00 00 00 00 02  // ......2XIF......
    01C0: 00 00 00 C7 00 00 F8 FF FF FF 00 00 00 00 00 02  // ................
    01D0: 00 00 10 88 0F 00 00 00 00 00 00 00 10 10 00 02  // ................
    01E0: 00 00 B4 88 0F 00 00 00 00 00 EB 0D 00 00 00 00  // ................
    01F0: 00 00 00 00 00 00 00 00 00 00 00 00 00 00 00 00  // ................
    0200: 00 00 00 00 00 00 00 00 00 00 00 00 00 00 00 00  // ................
    0210: 00 00 00 00 00 00 00 00 00 00 00 00 00 00 00 00  // ................
    0220: 00 00 00 00 00 00 00 00 00 00 00 00 00 00 00 00  // ................
    0230: 00 00 00 00 00 00 00 00 00 00 00 00 00 00 01 00  // ................
    0240: 00 00 43 42 53 55 01 EA 00 02 0A 00 36 00 94 00  // ..CBSU......6...
    0250: 56 00 03 80 43 51 00 00 16 00 2E 00 00 20 00 20  // V...CQ....... . 
    0260: 00 00 60 0A 00 00 00 00 00 20 00 20 00 00 60 0A  // ..`...... . ..`.
    0270: 00 00 00 00 FF FF 0F 00 00 10 00 00 5C 5F 53 42  // ............\_SB
    0280: 2E 55 52 53 30 00 00 00 00 00 00 00 00 00 00 00  // .URS0...........
    0290: 00 00 00 00 00 00 00 00 00 00 00 00 05 00 00 00  // ................
    02A0: 32 58 49 46 03 00 00 00 00 02 00 00 04 C7 00 00  // 2XIF............
    02B0: FF E1 FF FF 00 00 00 00 00 01 00 00 10 88 0F 00  // ................
    02C0: 00 00 00 00 00 00 10 10 00 02 00 00 B4 88 0F 00  // ................
    02D0: 00 00 00 00 EB 0D 00 00 00 00 00 00 00 00 00 00  // ................
    02E0: 00 00 00 00 00 00 00 00 00 00 00 00 00 00 00 00  // ................
    02F0: 00 00 00 00 00 00 00 00 00 00 00 00 00 00 00 00  // ................
    0300: 00 00 00 00 00 00 00 00 00 00 00 00 00 00 00 00  // ................
    0310: 00 00 00 00 00 00 00 00 00 00 00 00 00 00 00 00  // ................
    0320: 00 00 00 00 00 00 00 00 00 00 00 00 43 42 53 55  // ............CBSU
    0330: 01 EA 00 02 0A 00 36 00 94 00 56 00 03 80 43 51  // ......6...V...CQ
    0340: 00 00 16 00 2E 00 00 20 00 20 00 00 80 0A 00 00  // ....... . ......
    0350: 00 00 00 20 00 20 00 00 80 0A 00 00 00 00 FF FF  // ... . ..........
    0360: 0F 00 00 10 00 00 5C 5F 53 42 2E 55 52 53 31 00  // ......\_SB.URS1.
    0370: 00 00 00 00 00 00 00 00 00 00 00 00 00 00 00 00  // ................
    0380: 00 00 00 00 00 00 05 00 00 00 32 58 49 46 03 00  // ..........2XIF..
    0390: 00 00 00 02 00 00 04 C7 00 00 FF E1 FF FF 00 00  // ................
    03A0: 00 00 00 01 00 00 10 88 0F 00 00 00 00 00 00 00  // ................
    03B0: 10 10 00 02 00 00 B4 88 0F 00 00 00 00 00 EB 0D  // ................
    03C0: 00 00 00 00 00 00 00 00 00 00 00 00 00 00 00 00  // ................
    03D0: 00 00 00 00 00 00 00 00 00 00 00 00 00 00 00 00  // ................
    03E0: 00 00 00 00 00 00 00 00 00 00 00 00 00 00 00 00  // ................
    03F0: 00 00 00 00 00 00 00 00 00 00 00 00 00 00 00 00  // ................
    0400: 00 00 00 00 00 00 00 00 00 00 00 00 00 00 00 00  // ................
    0410: 00 00 01 00 00 00 43 42 53 55                    // ......CBSU
